target datalayout = "e-m:e-p270:32:32-p271:32:32-p272:64:64-i64:64-i128:128-f80:128-n8:16:32:64-S128"
target triple = "x86_64-pc-linux-gnu"

%struct.opj_stream_private = type { ptr, ptr, i64, ptr, ptr, ptr, ptr, ptr, ptr, ptr, ptr, i64, i64, i64, i32 }

; Function Attrs: nounwind uwtable
define hidden ptr @opj_stream_create(i64 noundef %0, i32 noundef %1) #0 {
  %3 = alloca ptr, align 8
  %4 = alloca i64, align 8
  %5 = alloca i32, align 4
  %6 = alloca ptr, align 8
  %7 = alloca i32, align 4
  store i64 %0, ptr %4, align 8, !tbaa !28
  store i32 %1, ptr %5, align 4, !tbaa !8
  call void @llvm.lifetime.start.p0(i64 8, ptr %6) #4
  store ptr null, ptr %6, align 8, !tbaa !30
  %8 = call ptr @opj_calloc(i64 noundef 1, i64 noundef 120)
  store ptr %8, ptr %6, align 8, !tbaa !30
  %9 = load ptr, ptr %6, align 8, !tbaa !30
  %10 = icmp ne ptr %9, null
  br i1 %10, label %12, label %11

11:                                               ; preds = %2
  store ptr null, ptr %3, align 8
  store i32 1, ptr %7, align 4
  br label %62

12:                                               ; preds = %2
  %13 = load i64, ptr %4, align 8, !tbaa !28
  %14 = load ptr, ptr %6, align 8, !tbaa !30
  %15 = getelementptr inbounds nuw %struct.opj_stream_private, ptr %14, i32 0, i32 13
  store i64 %13, ptr %15, align 8, !tbaa !32
  %16 = load i64, ptr %4, align 8, !tbaa !28
  %17 = call ptr @opj_malloc(i64 noundef %16)
  %18 = load ptr, ptr %6, align 8, !tbaa !30
  %19 = getelementptr inbounds nuw %struct.opj_stream_private, ptr %18, i32 0, i32 7
  store ptr %17, ptr %19, align 8, !tbaa !34
  %20 = load ptr, ptr %6, align 8, !tbaa !30
  %21 = getelementptr inbounds nuw %struct.opj_stream_private, ptr %20, i32 0, i32 7
  %22 = load ptr, ptr %21, align 8, !tbaa !34
  %23 = icmp ne ptr %22, null
  br i1 %23, label %26, label %24

24:                                               ; preds = %12
  %25 = load ptr, ptr %6, align 8, !tbaa !30
  call void @opj_free(ptr noundef %25)
  store ptr null, ptr %3, align 8
  store i32 1, ptr %7, align 4
  br label %62

26:                                               ; preds = %12
  %27 = load ptr, ptr %6, align 8, !tbaa !30
  %28 = getelementptr inbounds nuw %struct.opj_stream_private, ptr %27, i32 0, i32 7
  %29 = load ptr, ptr %28, align 8, !tbaa !34
  %30 = load ptr, ptr %6, align 8, !tbaa !30
  %31 = getelementptr inbounds nuw %struct.opj_stream_private, ptr %30, i32 0, i32 8
  store ptr %29, ptr %31, align 8, !tbaa !35
  %32 = load i32, ptr %5, align 4, !tbaa !8
  %33 = icmp ne i32 %32, 0
  br i1 %33, label %34, label %43

34:                                               ; preds = %26
  %35 = load ptr, ptr %6, align 8, !tbaa !30
  %36 = getelementptr inbounds nuw %struct.opj_stream_private, ptr %35, i32 0, i32 14
  %37 = load i32, ptr %36, align 8, !tbaa !36
  %38 = or i32 %37, 2
  store i32 %38, ptr %36, align 8, !tbaa !36
  %39 = load ptr, ptr %6, align 8, !tbaa !30
  %40 = getelementptr inbounds nuw %struct.opj_stream_private, ptr %39, i32 0, i32 9
  store ptr @opj_stream_read_skip, ptr %40, align 8, !tbaa !37
  %41 = load ptr, ptr %6, align 8, !tbaa !30
  %42 = getelementptr inbounds nuw %struct.opj_stream_private, ptr %41, i32 0, i32 10
  store ptr @opj_stream_read_seek, ptr %42, align 8, !tbaa !38
  br label %52

43:                                               ; preds = %26
  %44 = load ptr, ptr %6, align 8, !tbaa !30
  %45 = getelementptr inbounds nuw %struct.opj_stream_private, ptr %44, i32 0, i32 14
  %46 = load i32, ptr %45, align 8, !tbaa !36
  %47 = or i32 %46, 1
  store i32 %47, ptr %45, align 8, !tbaa !36
  %48 = load ptr, ptr %6, align 8, !tbaa !30
  %49 = getelementptr inbounds nuw %struct.opj_stream_private, ptr %48, i32 0, i32 9
  store ptr @opj_stream_write_skip, ptr %49, align 8, !tbaa !37
  %50 = load ptr, ptr %6, align 8, !tbaa !30
  %51 = getelementptr inbounds nuw %struct.opj_stream_private, ptr %50, i32 0, i32 10
  store ptr @opj_stream_write_seek, ptr %51, align 8, !tbaa !38
  br label %52

52:                                               ; preds = %43, %34
  %53 = load ptr, ptr %6, align 8, !tbaa !30
  %54 = getelementptr inbounds nuw %struct.opj_stream_private, ptr %53, i32 0, i32 3
  store ptr @opj_stream_default_read, ptr %54, align 8, !tbaa !39
  %55 = load ptr, ptr %6, align 8, !tbaa !30
  %56 = getelementptr inbounds nuw %struct.opj_stream_private, ptr %55, i32 0, i32 4
  store ptr @opj_stream_default_write, ptr %56, align 8, !tbaa !40
  %57 = load ptr, ptr %6, align 8, !tbaa !30
  %58 = getelementptr inbounds nuw %struct.opj_stream_private, ptr %57, i32 0, i32 5
  store ptr @opj_stream_default_skip, ptr %58, align 8, !tbaa !41
  %59 = load ptr, ptr %6, align 8, !tbaa !30
  %60 = getelementptr inbounds nuw %struct.opj_stream_private, ptr %59, i32 0, i32 6
  store ptr @opj_stream_default_seek, ptr %60, align 8, !tbaa !42
  %61 = load ptr, ptr %6, align 8, !tbaa !30
  store ptr %61, ptr %3, align 8
  store i32 1, ptr %7, align 4
  br label %62

62:                                               ; preds = %52, %24, %11
  call void @llvm.lifetime.end.p0(i64 8, ptr %6) #4
  %63 = load ptr, ptr %3, align 8
  ret ptr %63
}