; Function Attrs: nounwind uwtable
define hidden ptr @opj_stream_create(i64 noundef %0, i32 noundef %1) local_unnamed_addr #5 {
  %3 = tail call ptr @opj_calloc(i64 noundef 1, i64 noundef 120) #9
  %.not = icmp eq ptr %3, null
  br i1 %.not, label %20, label %4

4:                                                ; preds = %2
  %5 = getelementptr inbounds nuw i8, ptr %3, i64 104
  store i64 %0, ptr %5, align 8, !tbaa !19
  %6 = tail call ptr @opj_malloc(i64 noundef %0) #9
  %7 = getelementptr inbounds nuw i8, ptr %3, i64 56
  store ptr %6, ptr %7, align 8, !tbaa !24
  %.not23 = icmp eq ptr %6, null
  br i1 %.not23, label %8, label %9

8:                                                ; preds = %4
  tail call void @opj_free(ptr noundef nonnull %3) #9
  br label %20

9:                                                ; preds = %4
  %10 = getelementptr inbounds nuw i8, ptr %3, i64 64
  store ptr %6, ptr %10, align 8, !tbaa !25
  %.not24 = icmp eq i32 %1, 0
  %11 = getelementptr inbounds nuw i8, ptr %3, i64 112
  %12 = load i32, ptr %11, align 8, !tbaa !26
  %. = select i1 %.not24, i32 1, i32 2
  %opj_stream_write_skip.opj_stream_read_skip = select i1 %.not24, ptr @opj_stream_write_skip, ptr @opj_stream_read_skip
  %opj_stream_write_seek.opj_stream_read_seek = select i1 %.not24, ptr @opj_stream_write_seek, ptr @opj_stream_read_seek
  %13 = or i32 %12, %.
  store i32 %13, ptr %11, align 8, !tbaa !26
  %14 = getelementptr inbounds nuw i8, ptr %3, i64 72
  store ptr %opj_stream_write_skip.opj_stream_read_skip, ptr %14, align 8, !tbaa !27
  %15 = getelementptr inbounds nuw i8, ptr %3, i64 80
  store ptr %opj_stream_write_seek.opj_stream_read_seek, ptr %15, align 8, !tbaa !28
  %16 = getelementptr inbounds nuw i8, ptr %3, i64 24
  store ptr @opj_stream_default_read, ptr %16, align 8, !tbaa !29
  %17 = getelementptr inbounds nuw i8, ptr %3, i64 32
  store ptr @opj_stream_default_write, ptr %17, align 8, !tbaa !30
  %18 = getelementptr inbounds nuw i8, ptr %3, i64 40
  store ptr @opj_stream_default_skip, ptr %18, align 8, !tbaa !31
  %19 = getelementptr inbounds nuw i8, ptr %3, i64 48
  store ptr @opj_stream_default_seek, ptr %19, align 8, !tbaa !32
  br label %20

20:                                               ; preds = %2, %9, %8
  %.0 = phi ptr [ %3, %9 ], [ null, %8 ], [ null, %2 ]
  ret ptr %.0
}